target datalayout = "e-m:e-p270:32:32-p271:32:32-p272:64:64-i64:64-i128:128-f80:128-n8:16:32:64-S128"
target triple = "x86_64-pc-linux-gnu"

%struct.uat_key_record_s = type { ptr, ptr, ptr, ptr }

; Function Attrs: null_pointer_is_valid sspstrong uwtable
define internal ptr @uat_key_record_copy_cb(ptr noundef %0, ptr noundef %1, i64 noundef %2) #0 {
  %4 = alloca ptr, align 8
  %5 = alloca ptr, align 8
  %6 = alloca i64, align 8
  %7 = alloca ptr, align 8
  %8 = alloca ptr, align 8
  store ptr %0, ptr %4, align 8
  store ptr %1, ptr %5, align 8
  store i64 %2, ptr %6, align 8
  call void @llvm.lifetime.start.p0(i64 8, ptr %7) #13
  %9 = load ptr, ptr %4, align 8
  store ptr %9, ptr %7, align 8
  call void @llvm.lifetime.start.p0(i64 8, ptr %8) #13
  %10 = load ptr, ptr %5, align 8
  store ptr %10, ptr %8, align 8
  %11 = load ptr, ptr %8, align 8
  %12 = getelementptr inbounds nuw %struct.uat_key_record_s, ptr %11, i32 0, i32 0
  %13 = load ptr, ptr %12, align 8
  %14 = call noalias ptr @g_strdup(ptr noundef %13)
  %15 = load ptr, ptr %7, align 8
  %16 = getelementptr inbounds nuw %struct.uat_key_record_s, ptr %15, i32 0, i32 0
  store ptr %14, ptr %16, align 8
  %17 = load ptr, ptr %8, align 8
  %18 = getelementptr inbounds nuw %struct.uat_key_record_s, ptr %17, i32 0, i32 1
  %19 = load ptr, ptr %18, align 8
  %20 = call noalias ptr @g_strdup(ptr noundef %19)
  %21 = load ptr, ptr %7, align 8
  %22 = getelementptr inbounds nuw %struct.uat_key_record_s, ptr %21, i32 0, i32 1
  store ptr %20, ptr %22, align 8
  %23 = load ptr, ptr %8, align 8
  %24 = getelementptr inbounds nuw %struct.uat_key_record_s, ptr %23, i32 0, i32 2
  %25 = load ptr, ptr %24, align 8
  %26 = call noalias ptr @g_strdup(ptr noundef %25)
  %27 = load ptr, ptr %7, align 8
  %28 = getelementptr inbounds nuw %struct.uat_key_record_s, ptr %27, i32 0, i32 2
  store ptr %26, ptr %28, align 8
  %29 = load ptr, ptr %8, align 8
  %30 = getelementptr inbounds nuw %struct.uat_key_record_s, ptr %29, i32 0, i32 3
  %31 = load ptr, ptr %30, align 8
  %32 = call noalias ptr @g_strdup(ptr noundef %31)
  %33 = load ptr, ptr %7, align 8
  %34 = getelementptr inbounds nuw %struct.uat_key_record_s, ptr %33, i32 0, i32 3
  store ptr %32, ptr %34, align 8
  %35 = load ptr, ptr %7, align 8
  call void @llvm.lifetime.end.p0(i64 8, ptr %8) #13
  call void @llvm.lifetime.end.p0(i64 8, ptr %7) #13
  ret ptr %35
}